target datalayout = "e-m:e-p270:32:32-p271:32:32-p272:64:64-i64:64-i128:128-f80:128-n8:16:32:64-S128"
target triple = "x86_64-pc-linux-gnu"

; Function Attrs: nounwind uwtable
define internal i32 @myrand(ptr noundef %0, ptr noundef %1, i64 noundef %2) #0 {
  %4 = alloca ptr, align 8
  %5 = alloca ptr, align 8
  %6 = alloca i64, align 8
  %7 = alloca i64, align 8
  store ptr %0, ptr %4, align 8, !tbaa !26
  store ptr %1, ptr %5, align 8, !tbaa !8
  store i64 %2, ptr %6, align 8, !tbaa !10
  call void @llvm.lifetime.start.p0(i64 8, ptr %7) #9
  %8 = load ptr, ptr %4, align 8, !tbaa !26
  %9 = icmp ne ptr %8, null
  br i1 %9, label %10, label %11

10:                                               ; preds = %3
  store ptr null, ptr %4, align 8, !tbaa !26
  br label %11

11:                                               ; preds = %10, %3
  store i64 0, ptr %7, align 8, !tbaa !10
  br label %12

12:                                               ; preds = %22, %11
  %13 = load i64, ptr %7, align 8, !tbaa !10
  %14 = load i64, ptr %6, align 8, !tbaa !10
  %15 = icmp ult i64 %13, %14
  br i1 %15, label %16, label %25

16:                                               ; preds = %12
  %17 = call i32 @rand() #9
  %18 = trunc i32 %17 to i8
  %19 = load ptr, ptr %5, align 8, !tbaa !8
  %20 = load i64, ptr %7, align 8, !tbaa !10
  %21 = getelementptr inbounds nuw i8, ptr %19, i64 %20
  store i8 %18, ptr %21, align 1, !tbaa !33
  br label %22

22:                                               ; preds = %16
  %23 = load i64, ptr %7, align 8, !tbaa !10
  %24 = add i64 %23, 1
  store i64 %24, ptr %7, align 8, !tbaa !10
  br label %12, !llvm.loop !46

25:                                               ; preds = %12
  call void @llvm.lifetime.end.p0(i64 8, ptr %7) #9
  ret i32 0
}