; Function Attrs: nounwind uwtable
define internal noundef i32 @myrand(ptr readnone captures(none) %0, ptr noundef writeonly captures(none) %1, i64 noundef %2) #0 {
  %.not = icmp eq i64 %2, 0
  br i1 %.not, label %._crit_edge, label %.lr.ph

.lr.ph:                                           ; preds = %3, %.lr.ph
  %.05 = phi i64 [ %7, %.lr.ph ], [ 0, %3 ]
  %4 = tail call i32 @rand() #14
  %5 = trunc i32 %4 to i8
  %6 = getelementptr inbounds nuw i8, ptr %1, i64 %.05
  store i8 %5, ptr %6, align 1, !tbaa !23
  %7 = add nuw i64 %.05, 1
  %exitcond.not = icmp eq i64 %7, %2
  br i1 %exitcond.not, label %._crit_edge, label %.lr.ph, !llvm.loop !35

._crit_edge:                                      ; preds = %.lr.ph, %3
  ret i32 0
}